(lp0
(ibase
ItemFaculty
p1
(dp2
S'_ItemFaculty__num'
p3
I10
sS'_ItemFaculty__name'
p4
S'FPM'
p5
sS'list'
p6
(lp7
(ibase
ItemGroup
p8
(dp9
S'_ItemGroup__course'
p10
I3
sS'_ItemGroup__name'
p11
S'KV'
p12
sS'_ItemGroup__num_students'
p13
I60
sba(ibase
ItemGroup
p14
(dp15
g10
I2
sg11
S'KM'
p16
sg13
I23
sba(ibase
ItemGroup
p17
(dp18
g10
I4
sg11
S'KP'
p19
sg13
I45
sbasba(ibase
ItemFaculty
p20
(dp21
g3
I30
sg4
S'FP'
p22
sg6
(lp23
(ibase
ItemGroup
p24
(dp25
g10
I1
sg11
S'FP1'
p26
sg13
I50
sba(ibase
ItemGroup
p27
(dp28
g10
I2
sg11
S'FP2'
p29
sg13
I14
sba(ibase
ItemGroup
p30
(dp31
g10
I1
sg11
S'FP3'
p32
sg13
I168
sba(ibase
ItemGroup
p33
(dp34
g10
I2
sg11
S'FP4'
p35
sg13
I38
sbasba(ibase
ItemFaculty
p36
(dp37
g3
I13
sg4
S'FMM'
p38
sg6
(lp39
sba(ibase
ItemFaculty
p40
(dp41
g3
I30
sg4
S'KVP'
p42
sg6
(lp43
(ibase
ItemGroup
p44
(dp45
g10
I4
sg11
S'A'
p46
sg13
I32
sba(ibase
ItemGroup
p47
(dp48
g10
I3
sg11
S'B'
p49
sg13
I26
sbasba.